; Function Attrs: mustprogress uwtable
define void @_ZN32pxrInternal_v0_24__pxrReserved__36PcpTranslateTargetPathFromRootToNodeERKNS_10PcpNodeRefERKNS_7SdfPathEPb(ptr dead_on_unwind noalias nocapture writable writeonly sret(%"class.pxrInternal_v0_24__pxrReserved__::SdfPath") align 4 %0, ptr noundef nonnull align 8 dereferenceable(16) %1, ptr noundef nonnull align 4 dereferenceable(8) %2, ptr noundef %3) local_unnamed_addr #0 personality ptr @__gxx_personality_v0 {
  %5 = alloca %"class.pxrInternal_v0_24__pxrReserved__::TraceKey", align 8
  %6 = alloca %"class.pxrInternal_v0_24__pxrReserved__::TraceKey", align 8
  %7 = load atomic i32, ptr @_ZN32pxrInternal_v0_24__pxrReserved__14TraceCollector10_isEnabledE acquire, align 4
  %8 = icmp eq i32 %7, 1
  br i1 %8, label %9, label %_ZN32pxrInternal_v0_24__pxrReserved__14TraceScopeAutoC2ERKNS_18TraceStaticKeyDataE.exit

9:                                                ; preds = %4
  fence syncscope("singlethread") seq_cst
  %10 = tail call { i32, i32 } asm sideeffect "lfence\0A\09rdtsc\0A\09lfence", "={ax},={dx},~{dirflag},~{fpsr},~{flags}"() #10, !srcloc !4
  %11 = extractvalue { i32, i32 } %10, 0
  %12 = extractvalue { i32, i32 } %10, 1
  %13 = zext i32 %12 to i64
  %14 = shl nuw i64 %13, 32
  %15 = zext i32 %11 to i64
  br label %_ZN32pxrInternal_v0_24__pxrReserved__14TraceScopeAutoC2ERKNS_18TraceStaticKeyDataE.exit

_ZN32pxrInternal_v0_24__pxrReserved__14TraceScopeAutoC2ERKNS_18TraceStaticKeyDataE.exit: ; preds = %4, %9
  %.sroa.7.0 = phi i64 [ %15, %9 ], [ 0, %4 ]
  %.sroa.11.0 = phi i64 [ %14, %9 ], [ 0, %4 ]
  %16 = invoke noundef nonnull align 8 dereferenceable(8) ptr @_ZNK32pxrInternal_v0_24__pxrReserved__10PcpNodeRef12GetMapToRootEv(ptr noundef nonnull align 8 dereferenceable(16) %1)
          to label %17 unwind label %21

17:                                               ; preds = %_ZN32pxrInternal_v0_24__pxrReserved__14TraceScopeAutoC2ERKNS_18TraceStaticKeyDataE.exit
  invoke fastcc void @_ZN32pxrInternal_v0_24__pxrReserved__L17Pcp_TranslatePathILb0ENS_16PcpMapExpressionEEENS_7SdfPathERKT0_RKS2_Pb(ptr dead_on_unwind noalias writable align 4 %0, ptr noundef nonnull align 8 dereferenceable(8) %16, ptr noundef nonnull align 4 dereferenceable(8) %2, ptr noundef %3)
          to label %18 unwind label %21

18:                                               ; preds = %17
  call void @llvm.lifetime.start.p0(i64 8, ptr nonnull %6)
  br i1 %8, label %19, label %_ZN32pxrInternal_v0_24__pxrReserved__14TraceScopeAutoD2Ev.exit

19:                                               ; preds = %18
  fence syncscope("singlethread") seq_cst
  %20 = tail call noundef i64 asm sideeffect "rdtscp\0A\09shl $$32, %rdx\0A\09or %rdx, $0\0A\09lfence", "={ax},~{rcx},~{rdx},~{cc},~{dirflag},~{fpsr},~{flags}"() #10, !srcloc !10
  store ptr @_ZZN32pxrInternal_v0_24__pxrReserved__36PcpTranslateTargetPathFromRootToNodeERKNS_10PcpNodeRefERKNS_7SdfPathEPbE16TraceKeyData_150, ptr %6, align 8
  %.sroa.7.12.insert.insert = or disjoint i64 %.sroa.11.0, %.sroa.7.0
  call void @_ZN32pxrInternal_v0_24__pxrReserved__14TraceCollector5ScopeERKNS_8TraceKeyEmm(ptr noundef nonnull align 8 dereferenceable(8) %6, i64 noundef %.sroa.7.12.insert.insert, i64 noundef %20) #10
  br label %_ZN32pxrInternal_v0_24__pxrReserved__14TraceScopeAutoD2Ev.exit

_ZN32pxrInternal_v0_24__pxrReserved__14TraceScopeAutoD2Ev.exit: ; preds = %18, %19
  call void @llvm.lifetime.end.p0(i64 8, ptr nonnull %6)
  ret void

21:                                               ; preds = %17, %_ZN32pxrInternal_v0_24__pxrReserved__14TraceScopeAutoC2ERKNS_18TraceStaticKeyDataE.exit
  %22 = landingpad { ptr, i32 }
          cleanup
  call void @llvm.lifetime.start.p0(i64 8, ptr nonnull %5)
  br i1 %8, label %23, label %_ZN32pxrInternal_v0_24__pxrReserved__14TraceScopeAutoD2Ev.exit4

23:                                               ; preds = %21
  fence syncscope("singlethread") seq_cst
  %24 = tail call noundef i64 asm sideeffect "rdtscp\0A\09shl $$32, %rdx\0A\09or %rdx, $0\0A\09lfence", "={ax},~{rcx},~{rdx},~{cc},~{dirflag},~{fpsr},~{flags}"() #10, !srcloc !10
  store ptr @_ZZN32pxrInternal_v0_24__pxrReserved__36PcpTranslateTargetPathFromRootToNodeERKNS_10PcpNodeRefERKNS_7SdfPathEPbE16TraceKeyData_150, ptr %5, align 8
  %.sroa.7.12.insert.insert10 = or disjoint i64 %.sroa.11.0, %.sroa.7.0
  call void @_ZN32pxrInternal_v0_24__pxrReserved__14TraceCollector5ScopeERKNS_8TraceKeyEmm(ptr noundef nonnull align 8 dereferenceable(8) %5, i64 noundef %.sroa.7.12.insert.insert10, i64 noundef %24) #10
  br label %_ZN32pxrInternal_v0_24__pxrReserved__14TraceScopeAutoD2Ev.exit4

_ZN32pxrInternal_v0_24__pxrReserved__14TraceScopeAutoD2Ev.exit4: ; preds = %21, %23
  call void @llvm.lifetime.end.p0(i64 8, ptr nonnull %5)
  resume { ptr, i32 } %22
}